; Function Attrs: mustprogress uwtable
define hidden void @_ZN4cvc58internal6theory11quantifiers12TermRegistry20processSkolemizationENS0_12NodeTemplateILb1EEERKSt6vectorIS5_SaIS5_EE(ptr nocapture noundef nonnull readonly align 8 dereferenceable(208) %this, ptr nocapture noundef readonly %q, ptr noundef nonnull align 8 dereferenceable(24) %skolems) local_unnamed_addr #3 align 2 personality ptr @__gxx_personality_v0 {
entry:
  %agg.tmp = alloca %"class.cvc5::internal::NodeTemplate", align 8
  %d_termPools = getelementptr inbounds i8, ptr %this, i64 136
  %0 = load ptr, ptr %d_termPools, align 8
  %1 = load ptr, ptr %q, align 8
  store ptr %1, ptr %agg.tmp, align 8
  %bf.load.i.i = load i64, ptr %1, align 8
  %bf.lshr.i.i = lshr i64 %bf.load.i.i, 40
  %2 = trunc i64 %bf.lshr.i.i to i32
  %bf.cast.i.i = and i32 %2, 1048575
  %cmp.i.i = icmp ult i32 %bf.cast.i.i, 1048574
  br i1 %cmp.i.i, label %if.then.i.i, label %if.else.i.i

if.then.i.i:                                      ; preds = %entry
  %bf.value.i.i = add i64 %bf.load.i.i, 1099511627776
  %bf.shl.i.i = and i64 %bf.value.i.i, 1152920405095219200
  %bf.clear7.i.i = and i64 %bf.load.i.i, -1152920405095219201
  %bf.set.i.i = or disjoint i64 %bf.shl.i.i, %bf.clear7.i.i
  store i64 %bf.set.i.i, ptr %1, align 8
  br label %_ZN4cvc58internal12NodeTemplateILb1EEC2ERKS2_.exit

if.else.i.i:                                      ; preds = %entry
  %cmp12.i.i = icmp eq i32 %bf.cast.i.i, 1048574
  br i1 %cmp12.i.i, label %if.then13.i.i, label %_ZN4cvc58internal12NodeTemplateILb1EEC2ERKS2_.exit

if.then13.i.i:                                    ; preds = %if.else.i.i
  %bf.set23.i.i = or i64 %bf.load.i.i, 1152920405095219200
  store i64 %bf.set23.i.i, ptr %1, align 8
  tail call void @_ZN4cvc58internal4expr9NodeValue20markRefCountMaxedOutEv(ptr noundef nonnull align 8 dereferenceable(16) %1)
  br label %_ZN4cvc58internal12NodeTemplateILb1EEC2ERKS2_.exit

_ZN4cvc58internal12NodeTemplateILb1EEC2ERKS2_.exit: ; preds = %if.then.i.i, %if.else.i.i, %if.then13.i.i
  invoke void @_ZN4cvc58internal6theory11quantifiers9TermPools20processSkolemizationENS0_12NodeTemplateILb1EEERKSt6vectorIS5_SaIS5_EE(ptr noundef nonnull align 8 dereferenceable(120) %0, ptr noundef nonnull %agg.tmp, ptr noundef nonnull align 8 dereferenceable(24) %skolems)
          to label %invoke.cont unwind label %lpad

invoke.cont:                                      ; preds = %_ZN4cvc58internal12NodeTemplateILb1EEC2ERKS2_.exit
  %3 = load ptr, ptr %agg.tmp, align 8
  %bf.load.i.i1 = load i64, ptr %3, align 8
  %4 = and i64 %bf.load.i.i1, 1152920405095219200
  %cmp.not.i.i = icmp eq i64 %4, 1152920405095219200
  br i1 %cmp.not.i.i, label %_ZN4cvc58internal12NodeTemplateILb1EED2Ev.exit, label %if.then.i.i2

if.then.i.i2:                                     ; preds = %invoke.cont
  %bf.value.i.i3 = add i64 %bf.load.i.i1, 1152920405095219200
  %bf.shl.i.i4 = and i64 %bf.value.i.i3, 1152920405095219200
  %bf.clear7.i.i5 = and i64 %bf.load.i.i1, -1152920405095219201
  %bf.set.i.i6 = or disjoint i64 %bf.shl.i.i4, %bf.clear7.i.i5
  store i64 %bf.set.i.i6, ptr %3, align 8
  %cmp12.i.i7 = icmp eq i64 %bf.shl.i.i4, 0
  br i1 %cmp12.i.i7, label %if.then13.i.i8, label %_ZN4cvc58internal12NodeTemplateILb1EED2Ev.exit

if.then13.i.i8:                                   ; preds = %if.then.i.i2
  invoke void @_ZN4cvc58internal4expr9NodeValue15markForDeletionEv(ptr noundef nonnull align 8 dereferenceable(16) %3)
          to label %_ZN4cvc58internal12NodeTemplateILb1EED2Ev.exit unwind label %terminate.lpad.i

terminate.lpad.i:                                 ; preds = %if.then13.i.i8
  %5 = landingpad { ptr, i32 }
          catch ptr null
  %6 = extractvalue { ptr, i32 } %5, 0
  call void @__clang_call_terminate(ptr %6) #21
  unreachable

_ZN4cvc58internal12NodeTemplateILb1EED2Ev.exit:   ; preds = %invoke.cont, %if.then.i.i2, %if.then13.i.i8
  ret void

lpad:                                             ; preds = %_ZN4cvc58internal12NodeTemplateILb1EEC2ERKS2_.exit
  %7 = landingpad { ptr, i32 }
          cleanup
  call void @_ZN4cvc58internal12NodeTemplateILb1EED2Ev(ptr noundef nonnull align 8 dereferenceable(8) %agg.tmp) #20
  resume { ptr, i32 } %7
}